(lp0
(lp1
(I0
tp2
aF-1.2916118233997098
aa(lp3
(I1
tp4
aF-0.17794177139473438
aa(lp5
(I5
tp6
aF-0.9756117810952678
aa(lp7
(I3
tp8
aF-0.1932815792735908
aa(lp9
(I6
tp10
aF0.009203884727313847
aa(lp11
(I4
tp12
aF0.035281558121369745
aa(lp13
(I2
tp14
aF0.018407769454627694
aa(lp15
(I1
tp16
aF-0.17794177139473438
aa(lp17
(I2
tp18
aF0.018407769454627694
aa(lp19
(I0
tp20
aF-1.2916118233997098
aa(lp21
(I5
tp22
aF-0.9771457618831534
aa(lp23
(I3
tp24
aF-0.1932815792735908
aa(lp25
(I4
tp26
aF0.035281558121369745
aa(lp27
(I6
tp28
aF0.007669903939428206
aa(lp29
(I3
tp30
aF-0.1932815792735908
aa(lp31
(I0
tp32
aF-1.2916118233997098
aa(lp33
(I2
tp34
aF0.018407769454627694
aa(lp35
(I1
tp36
aF-0.17640779060684875
aa(lp37
(I4
tp38
aF0.035281558121369745
aa(lp39
(I6
tp40
aF0.007669903939428206
aa(lp41
(I5
tp42
aF-0.9756117810952678
aa(lp43
(I5
tp44
aF-0.9756117810952678
aa(lp45
(I0
tp46
aF-1.2916118233997098
aa(lp47
(I6
tp48
aF0.009203884727313847
aa(lp49
(I3
tp50
aF-0.1932815792735908
aa(lp51
(I2
tp52
aF0.019941750242513337
aa(lp53
(I4
tp54
aF0.035281558121369745
aa(lp55
(I1
tp56
aF-0.17794177139473438
aa(lp57
(I0
tp58
aF-1.2916118233997098
aa(lp59
(I4
tp60
aF0.035281558121369745
aa(lp61
(I5
tp62
aF-0.9756117810952678
aa(lp63
(I6
tp64
aF0.007669903939428206
aa(lp65
(I3
tp66
aF-0.1932815792735908
aa(lp67
(I1
tp68
aF-0.17640779060684875
aa(lp69
(I2
tp70
aF0.019941750242513337
aa(lp71
(I6
tp72
aF0.009203884727313847
aa(lp73
(I1
tp74
aF-0.17640779060684875
aa(lp75
(I4
tp76
aF0.035281558121369745
aa(lp77
(I3
tp78
aF-0.1932815792735908
aa(lp79
(I2
tp80
aF0.018407769454627694
aa(lp81
(I0
tp82
aF-1.2916118233997098
aa(lp83
(I5
tp84
aF-0.9771457618831534
aa(lp85
(I3
tp86
aF-0.1932815792735908
aa(lp87
(I5
tp88
aF-0.9756117810952678
aa(lp89
(I0
tp90
aF-1.2916118233997098
aa(lp91
(I1
tp92
aF-0.17640779060684875
aa(lp93
(I4
tp94
aF0.035281558121369745
aa(lp95
(I6
tp96
aF0.009203884727313847
aa(lp97
(I2
tp98
aF0.018407769454627694
aa(lp99
(I3
tp100
aF-0.1932815792735908
aa(lp101
(I5
tp102
aF-0.9756117810952678
aa(lp103
(I4
tp104
aF0.035281558121369745
aa(lp105
(I0
tp106
aF-1.2916118233997098
aa(lp107
(I6
tp108
aF0.009203884727313847
aa(lp109
(I1
tp110
aF-0.17640779060684875
aa(lp111
(I2
tp112
aF0.018407769454627694
aa(lp113
(I0
tp114
aF-1.2916118233997098
aa(lp115
(I5
tp116
aF-0.9771457618831534
aa(lp117
(I2
tp118
aF0.018407769454627694
aa(lp119
(I6
tp120
aF0.009203884727313847
aa(lp121
(I3
tp122
aF-0.1932815792735908
aa(lp123
(I1
tp124
aF-0.17487380981896308
aa(lp125
(I4
tp126
aF0.035281558121369745
aa(lp127
(I4
tp128
aF0.035281558121369745
aa(lp129
(I1
tp130
aF-0.17487380981896308
aa(lp131
(I0
tp132
aF-1.2916118233997098
aa(lp133
(I6
tp134
aF0.009203884727313847
aa(lp135
(I5
tp136
aF-0.9771457618831534
aa(lp137
(I2
tp138
aF0.019941750242513337
aa(lp139
(I3
tp140
aF-0.1932815792735908
aa(lp141
(I6
tp142
aF0.009203884727313847
aa(lp143
(I0
tp144
aF-1.2916118233997098
aa(lp145
(I3
tp146
aF-0.1932815792735908
aa(lp147
(I1
tp148
aF-0.17487380981896308
aa(lp149
(I2
tp150
aF0.019941750242513337
aa(lp151
(I4
tp152
aF0.035281558121369745
aa(lp153
(I5
tp154
aF-0.9771457618831534
aa(lp155
(I5
tp156
aF-0.9756117810952678
aa(lp157
(I2
tp158
aF0.019941750242513337
aa(lp159
(I0
tp160
aF-1.2916118233997098
aa(lp161
(I3
tp162
aF-0.1932815792735908
aa(lp163
(I6
tp164
aF0.009203884727313847
aa(lp165
(I4
tp166
aF0.035281558121369745
aa(lp167
(I1
tp168
aF-0.17333982903107745
aa(lp169
(I3
tp170
aF-0.1932815792735908
aa(lp171
(I6
tp172
aF0.009203884727313847
aa(lp173
(I5
tp174
aF-0.9756117810952678
aa(lp175
(I4
tp176
aF0.035281558121369745
aa(lp177
(I1
tp178
aF-0.17333982903107745
aa(lp179
(I0
tp180
aF-1.2916118233997098
aa(lp181
(I2
tp182
aF0.019941750242513337
aa(lp183
(I2
tp184
aF0.019941750242513337
aa(lp185
(I0
tp186
aF-1.2916118233997098
aa(lp187
(I1
tp188
aF-0.17333982903107745
aa(lp189
(I3
tp190
aF-0.1932815792735908
aa(lp191
(I6
tp192
aF0.009203884727313847
aa(lp193
(I4
tp194
aF0.035281558121369745
aa(lp195
(I5
tp196
aF-0.9771457618831534
aa(lp197
(I0
tp198
aF-1.2916118233997098
aa(lp199
(I6
tp200
aF0.009203884727313847
aa(lp201
(I1
tp202
aF-0.17333982903107745
aa(lp203
(I5
tp204
aF-0.9756117810952678
aa(lp205
(I3
tp206
aF-0.1932815792735908
aa(lp207
(I4
tp208
aF0.035281558121369745
aa(lp209
(I2
tp210
aF0.019941750242513337
aa(lp211
(I0
tp212
aF-1.2916118233997098
aa(lp213
(I3
tp214
aF-0.1932815792735908
aa(lp215
(I6
tp216
aF0.009203884727313847
aa(lp217
(I5
tp218
aF-0.9756117810952678
aa(lp219
(I1
tp220
aF-0.17333982903107745
aa(lp221
(I2
tp222
aF0.019941750242513337
aa(lp223
(I4
tp224
aF0.035281558121369745
aa(lp225
(I5
tp226
aF-0.9756117810952678
aa(lp227
(I3
tp228
aF-0.1932815792735908
aa(lp229
(I1
tp230
aF-0.17333982903107745
aa(lp231
(I0
tp232
aF-1.2916118233997098
aa(lp233
(I2
tp234
aF0.019941750242513337
aa(lp235
(I4
tp236
aF0.035281558121369745
aa(lp237
(I6
tp238
aF0.009203884727313847
aa(lp239
(I1
tp240
aF-0.17333982903107745
aa(lp241
(I0
tp242
aF-1.2916118233997098
aa(lp243
(I5
tp244
aF-0.9756117810952678
aa(lp245
(I6
tp246
aF0.009203884727313847
aa(lp247
(I4
tp248
aF0.035281558121369745
aa(lp249
(I3
tp250
aF-0.19174759848570513
aa(lp251
(I2
tp252
aF0.019941750242513337
aa(lp253
(I5
tp254
aF-0.9756117810952678
aa(lp255
(I1
tp256
aF-0.1718058482431918
aa(lp257
(I3
tp258
aF-0.1932815792735908
aa(lp259
(I4
tp260
aF0.035281558121369745
aa(lp261
(I6
tp262
aF0.007669903939428206
aa(lp263
(I0
tp264
aF-1.2916118233997098
aa(lp265
(I2
tp266
aF0.019941750242513337
aa(lp267
(I1
tp268
aF-0.1718058482431918
aa(lp269
(I6
tp270
aF0.009203884727313847
aa(lp271
(I4
tp272
aF0.035281558121369745
aa(lp273
(I5
tp274
aF-0.9771457618831534
aa(lp275
(I0
tp276
aF-1.2916118233997098
aa(lp277
(I3
tp278
aF-0.19174759848570513
aa(lp279
(I2
tp280
aF0.019941750242513337
aa(lp281
(I0
tp282
aF-1.2916118233997098
aa(lp283
(I6
tp284
aF0.009203884727313847
aa(lp285
(I4
tp286
aF0.035281558121369745
aa(lp287
(I5
tp288
aF-0.9771457618831534
aa(lp289
(I2
tp290
aF0.019941750242513337
aa(lp291
(I1
tp292
aF-0.1718058482431918
aa(lp293
(I3
tp294
aF-0.19174759848570513
aa(lp295
(I0
tp296
aF-1.2916118233997098
aa(lp297
(I6
tp298
aF0.009203884727313847
aa(lp299
(I5
tp300
aF-0.9771457618831534
aa(lp301
(I4
tp302
aF0.035281558121369745
aa(lp303
(I3
tp304
aF-0.1932815792735908
aa(lp305
(I1
tp306
aF-0.17027186745530618
aa(lp307
(I2
tp308
aF0.019941750242513337
aa(lp309
(I0
tp310
aF-1.2916118233997098
aa(lp311
(I1
tp312
aF-0.1718058482431918
aa(lp313
(I6
tp314
aF0.009203884727313847
aa(lp315
(I3
tp316
aF-0.19174759848570513
aa(lp317
(I5
tp318
aF-0.9771457618831534
aa(lp319
(I4
tp320
aF0.035281558121369745
aa(lp321
(I2
tp322
aF0.019941750242513337
aa(lp323
(I5
tp324
aF-0.9771457618831534
aa(lp325
(I2
tp326
aF0.019941750242513337
aa(lp327
(I6
tp328
aF0.009203884727313847
aa(lp329
(I3
tp330
aF-0.19174759848570513
aa(lp331
(I4
tp332
aF0.035281558121369745
aa(lp333
(I1
tp334
aF-0.17027186745530618
aa(lp335
(I0
tp336
aF-1.2916118233997098
aa(lp337
(I6
tp338
aF0.007669903939428206
aa(lp339
(I1
tp340
aF-0.17027186745530618
aa(lp341
(I5
tp342
aF-0.9756117810952678
aa(lp343
(I0
tp344
aF-1.2916118233997098
aa(lp345
(I4
tp346
aF0.035281558121369745
aa(lp347
(I2
tp348
aF0.019941750242513337
aa(lp349
(I3
tp350
aF-0.19174759848570513
aa(lp351
(I0
tp352
aF-1.2916118233997098
aa(lp353
(I4
tp354
aF0.035281558121369745
aa(lp355
(I5
tp356
aF-0.9771457618831534
aa(lp357
(I3
tp358
aF-0.19174759848570513
aa(lp359
(I2
tp360
aF0.019941750242513337
aa(lp361
(I6
tp362
aF0.009203884727313847
aa(lp363
(I1
tp364
aF-0.17027186745530618
aa(lp365
(I0
tp366
aF-1.2916118233997098
aa(lp367
(I3
tp368
aF-0.19174759848570513
aa(lp369
(I2
tp370
aF0.019941750242513337
aa(lp371
(I4
tp372
aF0.035281558121369745
aa(lp373
(I5
tp374
aF-0.9756117810952678
aa(lp375
(I6
tp376
aF0.009203884727313847
aa(lp377
(I1
tp378
aF-0.17027186745530618
aa(lp379
(I6
tp380
aF0.009203884727313847
aa(lp381
(I1
tp382
aF-0.17027186745530618
aa(lp383
(I2
tp384
aF0.019941750242513337
aa(lp385
(I0
tp386
aF-1.2916118233997098
aa(lp387
(I4
tp388
aF0.035281558121369745
aa(lp389
(I3
tp390
aF-0.1902136176978195
aa(lp391
(I5
tp392
aF-0.9771457618831534
aa(lp393
(I0
tp394
aF-1.2916118233997098
aa(lp395
(I6
tp396
aF0.009203884727313847
aa(lp397
(I3
tp398
aF-0.18867963690993386
aa(lp399
(I2
tp400
aF0.019941750242513337
aa(lp401
(I5
tp402
aF-0.9756117810952678
aa(lp403
(I1
tp404
aF-0.17027186745530618
aa(lp405
(I4
tp406
aF0.035281558121369745
aa(lp407
(I1
tp408
aF-0.17027186745530618
aa(lp409
(I6
tp410
aF0.009203884727313847
aa(lp411
(I2
tp412
aF0.019941750242513337
aa(lp413
(I4
tp414
aF0.035281558121369745
aa(lp415
(I3
tp416
aF-0.18407769454627693
aa(lp417
(I5
tp418
aF-0.9740778003073821
aa(lp419
(I0
tp420
aF-1.2916118233997098
aa(lp421
(I1
tp422
aF-0.17027186745530618
aa(lp423
(I5
tp424
aF-0.9740778003073821
aa(lp425
(I4
tp426
aF0.035281558121369745
aa(lp427
(I3
tp428
aF-0.17640779060684875
aa(lp429
(I6
tp430
aF0.007669903939428206
aa(lp431
(I2
tp432
aF0.019941750242513337
aa(lp433
(I0
tp434
aF-1.2916118233997098
aa(lp435
(I0
tp436
aF-1.2916118233997098
aa(lp437
(I1
tp438
aF-0.16873788666742054
aa(lp439
(I6
tp440
aF0.009203884727313847
aa(lp441
(I2
tp442
aF0.018407769454627694
aa(lp443
(I4
tp444
aF0.03834951969714103
aa(lp445
(I5
tp446
aF-0.9740778003073821
aa(lp447
(I3
tp448
aF-0.1641359443037636
aa(lp449
(I0
tp450
aF-1.2931458041875956
aa(lp451
(I3
tp452
aF-0.14726215563702155
aa(lp453
(I1
tp454
aF-0.16566992509164924
aa(lp455
(I5
tp456
aF-0.9740778003073821
aa(lp457
(I4
tp458
aF0.044485442848683596
aa(lp459
(I6
tp460
aF0.009203884727313847
aa(lp461
(I2
tp462
aF0.018407769454627694
aa(lp463
(I3
tp464
aF-0.12885438618239387
aa(lp465
(I4
tp466
aF0.0521553467881118
aa(lp467
(I1
tp468
aF-0.1564660403643354
aa(lp469
(I6
tp470
aF0.009203884727313847
aa(lp471
(I5
tp472
aF-0.9740778003073821
aa(lp473
(I0
tp474
aF-1.2946797849754812
aa(lp475
(I2
tp476
aF0.01687378866674205
aa(lp477
(I2
tp478
aF0.01687378866674205
aa(lp479
(I5
tp480
aF-0.9740778003073821
aa(lp481
(I1
tp482
aF-0.14419419406125028
aa(lp483
(I4
tp484
aF0.06289321230331128
aa(lp485
(I0
tp486
aF-1.2992817273391382
aa(lp487
(I3
tp488
aF-0.10584467436410924
aa(lp489
(I6
tp490
aF0.009203884727313847
aa(lp491
(I0
tp492
aF-1.3054176504906807
aa(lp493
(I6
tp494
aF0.007669903939428206
aa(lp495
(I4
tp496
aF0.07516505860639641
aa(lp497
(I1
tp498
aF-0.12578642460662257
aa(lp499
(I3
tp500
aF-0.08283496254582462
aa(lp501
(I5
tp502
aF-0.9740778003073821
aa(lp503
(I2
tp504
aF0.01687378866674205
aa(lp505
(I4
tp506
aF0.08743690490948154
aa(lp507
(I0
tp508
aF-1.3069516312785663
aa(lp509
(I2
tp510
aF0.01687378866674205
aa(lp511
(I3
tp512
aF-0.0674951546669682
aa(lp513
(I5
tp514
aF-0.9740778003073821
aa(lp515
(I1
tp516
aF-0.11044661672776616
aa(lp517
(I6
tp518
aF0.009203884727313847
aa(lp519
(I3
tp520
aF-0.06289321230331128
aa(lp521
(I0
tp522
aF-1.3069516312785663
aa(lp523
(I2
tp524
aF0.01687378866674205
aa(lp525
(I4
tp526
aF0.09970875121256667
aa(lp527
(I5
tp528
aF-0.9740778003073821
aa(lp529
(I1
tp530
aF-0.09817477042468103
aa(lp531
(I6
tp532
aF0.007669903939428206
aa(lp533
(I2
tp534
aF0.01687378866674205
aa(lp535
(I4
tp536
aF0.10737865515199488
aa(lp537
(I3
tp538
aF-0.056757289151768725
aa(lp539
(I1
tp540
aF-0.09510680884890975
aa(lp541
(I6
tp542
aF0.007669903939428206
aa(lp543
(I0
tp544
aF-1.3054176504906807
aa(lp545
(I5
tp546
aF-0.9740778003073821
aa(lp547
(I0
tp548
aF-1.3054176504906807
aa(lp549
(I2
tp550
aF0.019941750242513337
aa(lp551
(I5
tp552
aF-0.9740778003073821
aa(lp553
(I3
tp554
aF-0.044485442848683596
aa(lp555
(I4
tp556
aF0.1227184630308513
aa(lp557
(I1
tp558
aF-0.09357282806102411
aa(lp559
(I6
tp560
aF0.009203884727313847
aa(lp561
(I6
tp562
aF0.007669903939428206
aa(lp563
(I2
tp564
aF0.021475731030398976
aa(lp565
(I0
tp566
aF-1.303883669702795
aa(lp567
(I3
tp568
aF-0.01687378866674205
aa(lp569
(I5
tp570
aF-0.9725438195194965
aa(lp571
(I4
tp572
aF0.1487961364249072
aa(lp573
(I1
tp574
aF-0.09510680884890975
aa(lp575
(I3
tp576
aF0.015339807878856412
aa(lp577
(I5
tp578
aF-0.9725438195194965
aa(lp579
(I0
tp580
aF-1.3023496889149093
aa(lp581
(I2
tp582
aF0.021475731030398976
aa(lp583
(I4
tp584
aF0.18867963690993386
aa(lp585
(I1
tp586
aF-0.09510680884890975
aa(lp587
(I6
tp588
aF0.009203884727313847
aa(lp589
(I0
tp590
aF-1.3023496889149093
aa(lp591
(I5
tp592
aF-0.9725438195194965
aa(lp593
(I4
tp594
aF0.2316310989707318
aa(lp595
(I2
tp596
aF0.021475731030398976
aa(lp597
(I1
tp598
aF-0.09357282806102411
aa(lp599
(I3
tp600
aF0.047553404424454875
aa(lp601
(I6
tp602
aF0.009203884727313847
aa(lp603
(I0
tp604
aF-1.3023496889149093
aa(lp605
(I1
tp606
aF-0.09510680884890975
aa(lp607
(I2
tp608
aF0.021475731030398976
aa(lp609
(I3
tp610
aF0.07209709703062514
aa(lp611
(I4
tp612
aF0.27765052260730105
aa(lp613
(I5
tp614
aF-0.9725438195194965
aa(lp615
(I6
tp616
aF0.009203884727313847
aa(lp617
(I3
tp618
aF0.09050486648525283
aa(lp619
(I5
tp620
aF-0.9740778003073821
aa(lp621
(I4
tp622
aF0.3282718886075272
aa(lp623
(I2
tp624
aF0.021475731030398976
aa(lp625
(I1
tp626
aF-0.09510680884890975
aa(lp627
(I0
tp628
aF-1.3023496889149093
aa(lp629
(I6
tp630
aF0.009203884727313847
aa(lp631
(I0
tp632
aF-1.3023496889149093
aa(lp633
(I6
tp634
aF0.009203884727313847
aa(lp635
(I5
tp636
aF-0.9740778003073821
aa(lp637
(I1
tp638
aF-0.0966407896367954
aa(lp639
(I2
tp640
aF0.021475731030398976
aa(lp641
(I4
tp642
aF0.3865631585471816
aa(lp643
(I3
tp644
aF0.09817477042468103
aa(lp645
(I2
tp646
aF0.021475731030398976
aa(lp647
(I4
tp648
aF0.4540583132141498
aa(lp649
(I6
tp650
aF0.009203884727313847
aa(lp651
(I0
tp652
aF-1.3023496889149093
aa(lp653
(I3
tp654
aF0.10124273200045232
aa(lp655
(I5
tp656
aF-0.9740778003073821
aa(lp657
(I1
tp658
aF-0.09817477042468103
aa(lp659
(I2
tp660
aF0.023009711818284616
aa(lp661
(I6
tp662
aF0.009203884727313847
aa(lp663
(I1
tp664
aF-0.10277671278833796
aa(lp665
(I5
tp666
aF-0.9756117810952678
aa(lp667
(I0
tp668
aF-1.3023496889149093
aa(lp669
(I3
tp670
aF0.10277671278833796
aa(lp671
(I4
tp672
aF0.5322913333963175
aa(lp673
(I6
tp674
aF0.007669903939428206
aa(lp675
(I0
tp676
aF-1.3008157081270237
aa(lp677
(I1
tp678
aF-0.1043106935762236
aa(lp679
(I3
tp680
aF0.10737865515199488
aa(lp681
(I2
tp682
aF0.023009711818284616
aa(lp683
(I4
tp684
aF0.6227961998815703
aa(lp685
(I5
tp686
aF-0.9756117810952678
aa(lp687
(I0
tp688
aF-1.2992817273391382
aa(lp689
(I1
tp690
aF-0.1043106935762236
aa(lp691
(I3
tp692
aF0.10891263593988053
aa(lp693
(I5
tp694
aF-0.9756117810952678
aa(lp695
(I2
tp696
aF0.02454369260617026
aa(lp697
(I6
tp698
aF0.009203884727313847
aa(lp699
(I4
tp700
aF0.722504951094137
aa(lp701
(I6
tp702
aF0.009203884727313847
aa(lp703
(I1
tp704
aF-0.1043106935762236
aa(lp705
(I0
tp706
aF-1.2962137657633668
aa(lp707
(I4
tp708
aF0.8283496254582462
aa(lp709
(I2
tp710
aF0.02454369260617026
aa(lp711
(I3
tp712
aF0.10891263593988053
aa(lp713
(I5
tp714
aF-0.9756117810952678
aa(lp715
(I3
tp716
aF0.10737865515199488
aa(lp717
(I5
tp718
aF-0.9756117810952678
aa(lp719
(I0
tp720
aF-1.2931458041875956
aa(lp721
(I6
tp722
aF0.009203884727313847
aa(lp723
(I1
tp724
aF-0.1043106935762236
aa(lp725
(I4
tp726
aF0.9387962421860124
aa(lp727
(I2
tp728
aF0.0260776733940559
aa(lp729
(I2
tp730
aF0.02761165418194154
aa(lp731
(I5
tp732
aF-0.9756117810952678
aa(lp733
(I4
tp734
aF1.0461748973380072
aa(lp735
(I1
tp736
aF-0.1043106935762236
aa(lp737
(I0
tp738
aF-1.2870098810360528
aa(lp739
(I6
tp740
aF0.009203884727313847
aa(lp741
(I3
tp742
aF0.10891263593988053
aa(lp743
(I0
tp744
aF-1.2762720155208536
aa(lp745
(I1
tp746
aF-0.10584467436410924
aa(lp747
(I6
tp748
aF0.009203884727313847
aa(lp749
(I2
tp750
aF0.02914563496982718
aa(lp751
(I5
tp752
aF-0.9725438195194965
aa(lp753
(I3
tp754
aF0.11351457830353745
aa(lp755
(I4
tp756
aF1.1336118022474888
aa(lp757
(I0
tp758
aF-1.265534150005654
aa(lp759
(I1
tp760
aF-0.10891263593988053
aa(lp761
(I6
tp762
aF0.009203884727313847
aa(lp763
(I3
tp764
aF0.11504855909142309
aa(lp765
(I5
tp766
aF-0.9725438195194965
aa(lp767
(I2
tp768
aF0.032213596545598466
aa(lp769
(I4
tp770
aF1.2041749184902284
aa(lp771
(I0
tp772
aF-1.2532623037025687
aa(lp773
(I2
tp774
aF0.03834951969714103
aa(lp775
(I5
tp776
aF-0.9725438195194965
aa(lp777
(I6
tp778
aF0.009203884727313847
aa(lp779
(I4
tp780
aF1.2517283229146832
aa(lp781
(I3
tp782
aF0.1119805975156518
aa(lp783
(I1
tp784
aF-0.11658253987930872
aa(lp785
(I3
tp786
aF0.11504855909142309
aa(lp787
(I6
tp788
aF0.009203884727313847
aa(lp789
(I0
tp790
aF-1.239456476611598
aa(lp791
(I5
tp792
aF-0.9725438195194965
aa(lp793
(I4
tp794
aF1.2747380347329678
aa(lp795
(I2
tp796
aF0.04601942363656923
aa(lp797
(I1
tp798
aF-0.12578642460662257
aa(lp799
(I3
tp800
aF0.11351457830353745
aa(lp801
(I2
tp802
aF0.05368932757599744
aa(lp803
(I0
tp804
aF-1.2256506495206272
aa(lp805
(I5
tp806
aF-0.9725438195194965
aa(lp807
(I6
tp808
aF0.009203884727313847
aa(lp809
(I4
tp810
aF1.2762720155208536
aa(lp811
(I1
tp812
aF-0.13959225169759334
aa(lp813
(I5
tp814
aF-0.9725438195194965
aa(lp815
(I0
tp816
aF-1.214912784005428
aa(lp817
(I1
tp818
aF-0.16260196351587797
aa(lp819
(I4
tp820
aF1.2762720155208536
aa(lp821
(I2
tp822
aF0.059825250727540004
aa(lp823
(I3
tp824
aF0.11504855909142309
aa(lp825
(I6
tp826
aF0.007669903939428206
aa(lp827
(I6
tp828
aF0.009203884727313847
aa(lp829
(I2
tp830
aF0.06289321230331128
aa(lp831
(I4
tp832
aF1.2747380347329678
aa(lp833
(I1
tp834
aF-0.18714565612204823
aa(lp835
(I3
tp836
aF0.11811652066719437
aa(lp837
(I5
tp838
aF-0.9725438195194965
aa(lp839
(I0
tp840
aF-1.2072428800659996
aa(lp841
(I0
tp842
aF-1.1965050145508
aa(lp843
(I2
tp844
aF0.06289321230331128
aa(lp845
(I1
tp846
aF-0.2162912910918754
aa(lp847
(I3
tp848
aF0.12118448224296566
aa(lp849
(I4
tp850
aF1.2701360923693108
aa(lp851
(I6
tp852
aF0.009203884727313847
aa(lp853
(I5
tp854
aF-0.9710098387316108
aa(lp855
(I3
tp856
aF0.12118448224296566
aa(lp857
(I0
tp858
aF-1.184233168247715
aa(lp859
(I5
tp860
aF-0.9679418771558396
aa(lp861
(I1
tp862
aF-0.24390294527381695
aa(lp863
(I4
tp864
aF1.2701360923693108
aa(lp865
(I2
tp866
aF0.06289321230331128
aa(lp867
(I6
tp868
aF0.009203884727313847
aa(lp869
(I2
tp870
aF0.06289321230331128
aa(lp871
(I4
tp872
aF1.2686021115814252
aa(lp873
(I5
tp874
aF-0.9648739155800683
aa(lp875
(I3
tp876
aF0.11965050145508001
aa(lp877
(I0
tp878
aF-1.1734953027325155
aa(lp879
(I6
tp880
aF0.009203884727313847
aa(lp881
(I1
tp882
aF-0.2653786763042159
aa(lp883
(I2
tp884
aF0.06289321230331128
aa(lp885
(I5
tp886
aF-0.9648739155800683
aa(lp887
(I1
tp888
aF-0.2868544073346149
aa(lp889
(I4
tp890
aF1.2670681307935396
aa(lp891
(I0
tp892
aF-1.1719613219446299
aa(lp893
(I3
tp894
aF0.1227184630308513
aa(lp895
(I6
tp896
aF0.009203884727313847
aa(lp897
(I4
tp898
aF1.2517283229146832
aa(lp899
(I2
tp900
aF0.06289321230331128
aa(lp901
(I0
tp902
aF-1.1704273411567443
aa(lp903
(I3
tp904
aF0.12425244381873693
aa(lp905
(I1
tp906
aF-0.3052621767892426
aa(lp907
(I5
tp908
aF-0.9648739155800683
aa(lp909
(I6
tp910
aF0.009203884727313847
aa(lp911
(I0
tp912
aF-1.1658253987930873
aa(lp913
(I2
tp914
aF0.06135923151542565
aa(lp915
(I5
tp916
aF-0.9633399347921826
aa(lp917
(I4
tp918
aF1.2333205534600555
aa(lp919
(I3
tp920
aF0.12885438618239387
aa(lp921
(I6
tp922
aF0.009203884727313847
aa(lp923
(I1
tp924
aF-0.3236699462438703
aa(lp925
(I3
tp926
aF0.13345632854605077
aa(lp927
(I0
tp928
aF-1.1596894756415448
aa(lp929
(I4
tp930
aF1.2241166687327416
aa(lp931
(I6
tp932
aF0.007669903939428206
aa(lp933
(I2
tp934
aF0.06289321230331128
aa(lp935
(I5
tp936
aF-0.9633399347921826
aa(lp937
(I1
tp938
aF-0.34821363885004053
aa(lp939
(I6
tp940
aF0.009203884727313847
aa(lp941
(I5
tp942
aF-0.9633399347921826
aa(lp943
(I2
tp944
aF0.06289321230331128
aa(lp945
(I1
tp946
aF-0.3712233506683252
aa(lp947
(I4
tp948
aF1.214912784005428
aa(lp949
(I0
tp950
aF-1.1535535524900022
aa(lp951
(I3
tp952
aF0.13959225169759334
aa(lp953
(I0
tp954
aF-1.145883648550574
aa(lp955
(I6
tp956
aF0.009203884727313847
aa(lp957
(I2
tp958
aF0.06289321230331128
aa(lp959
(I1
tp960
aF-0.3911651009108385
aa(lp961
(I5
tp962
aF-0.9633399347921826
aa(lp963
(I3
tp964
aF0.14572817484913592
aa(lp965
(I4
tp966
aF1.1949710337629145
aa(lp967
(I1
tp968
aF-0.40803888957758055
aa(lp969
(I0
tp970
aF-1.1397477253990314
aa(lp971
(I3
tp972
aF0.15033011721279282
aa(lp973
(I2
tp974
aF0.06289321230331128
aa(lp975
(I5
tp976
aF-0.9633399347921826
aa(lp977
(I4
tp978
aF1.167359379580973
aa(lp979
(I6
tp980
aF0.007669903939428206
aa(lp981
(I2
tp982
aF0.06135923151542565
aa(lp983
(I6
tp984
aF0.009203884727313847
aa(lp985
(I4
tp986
aF1.1428156869748027
aa(lp987
(I1
tp988
aF-0.4249126782443226
aa(lp989
(I0
tp990
aF-1.1351457830353744
aa(lp991
(I3
tp992
aF0.1518640980006785
aa(lp993
(I5
tp994
aF-0.961805954004297
aa(lp995
(I0
tp996
aF-1.1320778214596032
aa(lp997
(I2
tp998
aF0.06289321230331128
aa(lp999
(I1
tp1000
aF-0.44178646691106466
aa(lp1001
(I6
tp1002
aF0.009203884727313847
aa(lp1003
(I4
tp1004
aF1.1259418983080607
aa(lp1005
(I3
tp1006
aF0.15339807878856412
aa(lp1007
(I5
tp1008
aF-0.9602719732164113
aa(lp1009
(I0
tp1010
aF-1.1290098598838318
aa(lp1011
(I3
tp1012
aF0.15493205957644976
aa(lp1013
(I2
tp1014
aF0.06135923151542565
aa(lp1015
(I1
tp1016
aF-0.461728217153578
aa(lp1017
(I5
tp1018
aF-0.9587379924285258
aa(lp1019
(I4
tp1020
aF1.1090681096413186
aa(lp1021
(I6
tp1022
aF0.007669903939428206
aa(lp1023
(I0
tp1024
aF-1.1198059751565181
aa(lp1025
(I1
tp1026
aF-0.48473792897186263
aa(lp1027
(I6
tp1028
aF0.009203884727313847
aa(lp1029
(I2
tp1030
aF0.06135923151542565
aa(lp1031
(I3
tp1032
aF0.15493205957644976
aa(lp1033
(I5
tp1034
aF-0.9587379924285258
aa(lp1035
(I4
tp1036
aF1.0937283017624622
aa(lp1037
(I1
tp1038
aF-0.5077476407901472
aa(lp1039
(I0
tp1040
aF-1.1044661672776617
aa(lp1041
(I4
tp1042
aF1.0753205323078345
aa(lp1043
(I2
tp1044
aF0.06289321230331128
aa(lp1045
(I5
tp1046
aF-0.9572040116406401
aa(lp1047
(I6
tp1048
aF0.009203884727313847
aa(lp1049
(I3
tp1050
aF0.15493205957644976
aa(lp1051
(I0
tp1052
aF-1.0891263593988052
aa(lp1053
(I1
tp1054
aF-0.5276893910326605
aa(lp1055
(I6
tp1056
aF0.009203884727313847
aa(lp1057
(I3
tp1058
aF0.15493205957644976
aa(lp1059
(I5
tp1060
aF-0.9572040116406401
aa(lp1061
(I2
tp1062
aF0.05829126993965436
aa(lp1063
(I4
tp1064
aF1.0461748973380072
aa(lp1065
(I1
tp1066
aF-0.5399612373357456
aa(lp1067
(I0
tp1068
aF-1.0737865515199487
aa(lp1069
(I2
tp1070
aF0.056757289151768725
aa(lp1071
(I4
tp1072
aF1.0108933392166375
aa(lp1073
(I3
tp1074
aF0.15493205957644976
aa(lp1075
(I5
tp1076
aF-0.9572040116406401
aa(lp1077
(I6
tp1078
aF0.009203884727313847
aa(lp1079
(I4
tp1080
aF0.9587379924285258
aa(lp1081
(I2
tp1082
aF0.056757289151768725
aa(lp1083
(I0
tp1084
aF-1.0676506283684062
aa(lp1085
(I6
tp1086
aF0.009203884727313847
aa(lp1087
(I5
tp1088
aF-0.9572040116406401
aa(lp1089
(I1
tp1090
aF-0.543029198911517
aa(lp1091
(I3
tp1092
aF0.1518640980006785
aa(lp1093
(I1
tp1094
aF-0.5368932757599744
aa(lp1095
(I5
tp1096
aF-0.9572040116406401
aa(lp1097
(I0
tp1098
aF-1.064582666792635
aa(lp1099
(I2
tp1100
aF0.05522330836388308
aa(lp1101
(I4
tp1102
aF0.8943107993373288
aa(lp1103
(I6
tp1104
aF0.007669903939428206
aa(lp1105
(I3
tp1106
aF0.14112623248547898
aa(lp1107
(I5
tp1108
aF-0.9572040116406401
aa(lp1109
(I0
tp1110
aF-1.0630486860047492
aa(lp1111
(I1
tp1112
aF-0.526155410244775
aa(lp1113
(I4
tp1114
aF0.8206797215188181
aa(lp1115
(I2
tp1116
aF0.0521553467881118
aa(lp1117
(I3
tp1118
aF0.10891263593988053
aa(lp1119
(I6
tp1120
aF0.009203884727313847
aa(lp1121
(I4
tp1122
aF0.7485826244881929
aa(lp1123
(I2
tp1124
aF0.04908738521234052
aa(lp1125
(I0
tp1126
aF-1.0584467436410925
aa(lp1127
(I5
tp1128
aF-0.9556700308527545
aa(lp1129
(I6
tp1130
aF0.009203884727313847
aa(lp1131
(I1
tp1132
aF-0.5184855063053467
aa(lp1133
(I3
tp1134
aF0.06289321230331128
aa(lp1135
(I0
tp1136
aF-1.0461748973380072
aa(lp1137
(I2
tp1138
aF0.047553404424454875
aa(lp1139
(I3
tp1140
aF0.015339807878856412
aa(lp1141
(I5
tp1142
aF-0.9556700308527545
aa(lp1143
(I1
tp1144
aF-0.5108156023659185
aa(lp1145
(I4
tp1146
aF0.6872233929727672
aa(lp1147
(I6
tp1148
aF0.009203884727313847
aa(lp1149
(I0
tp1150
aF-1.0246991663076084
aa(lp1151
(I1
tp1152
aF-0.49394181369917645
aa(lp1153
(I2
tp1154
aF0.047553404424454875
aa(lp1155
(I5
tp1156
aF-0.9572040116406401
aa(lp1157
(I4
tp1158
aF0.6335340653967698
aa(lp1159
(I6
tp1160
aF0.007669903939428206
aa(lp1161
(I3
tp1162
aF-0.032213596545598466
aa(lp1163
(I0
tp1164
aF-0.9924855697620099
aa(lp1165
(I4
tp1166
aF0.5905826033359719
aa(lp1167
(I3
tp1168
aF-0.06902913545485385
aa(lp1169
(I1
tp1170
aF-0.4663301595172349
aa(lp1171
(I2
tp1172
aF0.044485442848683596
aa(lp1173
(I5
tp1174
aF-0.9572040116406401
aa(lp1175
(I6
tp1176
aF0.007669903939428206
aa(lp1177
(I5
tp1178
aF-0.9572040116406401
aa(lp1179
(I1
tp1180
aF-0.4279806398200939
aa(lp1181
(I0
tp1182
aF-0.9572040116406401
aa(lp1183
(I4
tp1184
aF0.5599029875782591
aa(lp1185
(I3
tp1186
aF-0.08436894333371027
aa(lp1187
(I2
tp1188
aF0.039883500485026674
aa(lp1189
(I6
tp1190
aF0.009203884727313847
aa(lp1191
(I3
tp1192
aF-0.08283496254582462
aa(lp1193
(I2
tp1194
aF0.02914563496982718
aa(lp1195
(I6
tp1196
aF0.009203884727313847
aa(lp1197
(I5
tp1198
aF-0.9572040116406401
aa(lp1199
(I1
tp1200
aF-0.380427235395639
aa(lp1201
(I0
tp1202
aF-0.9219224535192704
aa(lp1203
(I4
tp1204
aF0.5460971604872883
aa(lp1205
(I2
tp1206
aF0.01380582709097077
aa(lp1207
(I5
tp1208
aF-0.9572040116406401
aa(lp1209
(I3
tp1210
aF-0.07976700097005335
aa(lp1211
(I4
tp1212
aF0.5445631796994026
aa(lp1213
(I0
tp1214
aF-0.8897088569736719
aa(lp1215
(I6
tp1216
aF0.009203884727313847
aa(lp1217
(I1
tp1218
aF-0.33440781175906975
aa(lp1219
(I0
tp1220
aF-0.8605632220038447
aa(lp1221
(I1
tp1222
aF-0.29299033048615747
aa(lp1223
(I2
tp1224
aF0.0046019423636569235
aa(lp1225
(I5
tp1226
aF-0.9572040116406401
aa(lp1227
(I4
tp1228
aF0.5445631796994026
aa(lp1229
(I6
tp1230
aF0.009203884727313847
aa(lp1231
(I3
tp1232
aF-0.0782330201821677
aa(lp1233
(I2
tp1234
aF0.0046019423636569235
aa(lp1235
(I0
tp1236
aF-0.8390874909734457
aa(lp1237
(I5
tp1238
aF-0.9572040116406401
aa(lp1239
(I4
tp1240
aF0.5445631796994026
aa(lp1241
(I1
tp1242
aF-0.2561747915769021
aa(lp1243
(I6
tp1244
aF0.009203884727313847
aa(lp1245
(I3
tp1246
aF-0.0782330201821677
aa(lp1247
(I0
tp1248
aF-0.8206797215188181
aa(lp1249
(I1
tp1250
aF-0.2193592526676467
aa(lp1251
(I4
tp1252
aF0.5445631796994026
aa(lp1253
(I3
tp1254
aF-0.07669903939428206
aa(lp1255
(I2
tp1256
aF0.0046019423636569235
aa(lp1257
(I6
tp1258
aF0.009203884727313847
aa(lp1259
(I5
tp1260
aF-0.9572040116406401
aa(lp1261
(I1
tp1262
aF-0.17947575218262002
aa(lp1263
(I4
tp1264
aF0.5445631796994026
aa(lp1265
(I0
tp1266
aF-0.7976700097005334
aa(lp1267
(I6
tp1268
aF0.009203884727313847
aa(lp1269
(I3
tp1270
aF-0.07669903939428206
aa(lp1271
(I2
tp1272
aF0.0046019423636569235
aa(lp1273
(I5
tp1274
aF-0.9556700308527545
aa(lp1275
(I0
tp1276
aF-0.782330201821677
aa(lp1277
(I2
tp1278
aF0.0046019423636569235
aa(lp1279
(I3
tp1280
aF-0.07363107781851078
aa(lp1281
(I4
tp1282
aF0.5445631796994026
aa(lp1283
(I6
tp1284
aF0.009203884727313847
aa(lp1285
(I5
tp1286
aF-0.9556700308527545
aa(lp1287
(I1
tp1288
aF-0.1380582709097077
aa(lp1289
(I3
tp1290
aF-0.06902913545485385
aa(lp1291
(I6
tp1292
aF0.007669903939428206
aa(lp1293
(I4
tp1294
aF0.5445631796994026
aa(lp1295
(I0
tp1296
aF-0.7731263170943632
aa(lp1297
(I2
tp1298
aF0.006135923151542565
aa(lp1299
(I5
tp1300
aF-0.9556700308527545
aa(lp1301
(I1
tp1302
aF-0.09357282806102411
aa(lp1303
(I2
tp1304
aF0.009203884727313847
aa(lp1305
(I5
tp1306
aF-0.9556700308527545
aa(lp1307
(I4
tp1308
aF0.5445631796994026
aa(lp1309
(I3
tp1310
aF-0.06442719309119693
aa(lp1311
(I1
tp1312
aF-0.0521553467881118
aa(lp1313
(I0
tp1314
aF-0.7685243747307062
aa(lp1315
(I6
tp1316
aF0.009203884727313847
aa(lp1317
(I0
tp1318
aF-0.7562525284276211
aa(lp1319
(I2
tp1320
aF0.009203884727313847
aa(lp1321
(I3
tp1322
aF-0.06442719309119693
aa(lp1323
(I5
tp1324
aF-0.9556700308527545
aa(lp1325
(I1
tp1326
aF-0.01687378866674205
aa(lp1327
(I6
tp1328
aF0.009203884727313847
aa(lp1329
(I4
tp1330
aF0.5445631796994026
aa(lp1331
(I6
tp1332
aF0.009203884727313847
aa(lp1333
(I0
tp1334
aF-0.7516505860639642
aa(lp1335
(I5
tp1336
aF-0.9556700308527545
aa(lp1337
(I4
tp1338
aF0.5445631796994026
aa(lp1339
(I1
tp1340
aF0.009203884727313847
aa(lp1341
(I2
tp1342
aF0.009203884727313847
aa(lp1343
(I3
tp1344
aF-0.06902913545485385
aa(lp1345
(I5
tp1346
aF-0.9587379924285258
aa(lp1347
(I0
tp1348
aF-0.7470486437003072
aa(lp1349
(I3
tp1350
aF-0.07976700097005335
aa(lp1351
(I2
tp1352
aF0.009203884727313847
aa(lp1353
(I1
tp1354
aF0.0337475773334841
aa(lp1355
(I4
tp1356
aF0.5476311412751739
aa(lp1357
(I6
tp1358
aF0.009203884727313847
aa(lp1359
(I1
tp1360
aF0.0674951546669682
aa(lp1361
(I2
tp1362
aF0.010737865515199488
aa(lp1363
(I3
tp1364
aF-0.0859029241215959
aa(lp1365
(I4
tp1366
aF0.5491651220630596
aa(lp1367
(I5
tp1368
aF-0.9556700308527545
aa(lp1369
(I6
tp1370
aF0.009203884727313847
aa(lp1371
(I0
tp1372
aF-0.7393787397608791
aa(lp1373
(I1
tp1374
aF0.0966407896367954
aa(lp1375
(I2
tp1376
aF0.010737865515199488
aa(lp1377
(I3
tp1378
aF-0.09203884727313846
aa(lp1379
(I6
tp1380
aF0.009203884727313847
aa(lp1381
(I4
tp1382
aF0.5476311412751739
aa(lp1383
(I5
tp1384
aF-0.9556700308527545
aa(lp1385
(I0
tp1386
aF-0.7363107781851077
aa(lp1387
(I6
tp1388
aF0.009203884727313847
aa(lp1389
(I3
tp1390
aF-0.1043106935762236
aa(lp1391
(I1
tp1392
aF0.12118448224296566
aa(lp1393
(I0
tp1394
aF-0.7363107781851077
aa(lp1395
(I2
tp1396
aF0.009203884727313847
aa(lp1397
(I5
tp1398
aF-0.9572040116406401
aa(lp1399
(I4
tp1400
aF0.5491651220630596
aa(lp1401
(I6
tp1402
aF0.009203884727313847
aa(lp1403
(I5
tp1404
aF-0.9572040116406401
aa(lp1405
(I0
tp1406
aF-0.7332428166093364
aa(lp1407
(I1
tp1408
aF0.13345632854605077
aa(lp1409
(I3
tp1410
aF-0.1303883669702795
aa(lp1411
(I4
tp1412
aF0.5491651220630596
aa(lp1413
(I2
tp1414
aF0.009203884727313847
aa(lp1415
(I5
tp1416
aF-0.9556700308527545
aa(lp1417
(I0
tp1418
aF-0.7317088358214509
aa(lp1419
(I4
tp1420
aF0.5491651220630596
aa(lp1421
(I2
tp1422
aF0.009203884727313847
aa(lp1423
(I6
tp1424
aF0.009203884727313847
aa(lp1425
(I3
tp1426
aF-0.16260196351587797
aa(lp1427
(I1
tp1428
aF0.14112623248547898
aa(lp1429
(I0
tp1430
aF-0.7317088358214509
aa(lp1431
(I3
tp1432
aF-0.19634954084936207
aa(lp1433
(I1
tp1434
aF0.14266021327336462
aa(lp1435
(I2
tp1436
aF0.009203884727313847
aa(lp1437
(I5
tp1438
aF-0.9556700308527545
aa(lp1439
(I6
tp1440
aF0.009203884727313847
aa(lp1441
(I4
tp1442
aF0.5491651220630596
aa(lp1443
(I0
tp1444
aF-0.7332428166093364
aa(lp1445
(I6
tp1446
aF0.009203884727313847
aa(lp1447
(I2
tp1448
aF0.009203884727313847
aa(lp1449
(I5
tp1450
aF-0.9556700308527545
aa(lp1451
(I1
tp1452
aF0.14266021327336462
aa(lp1453
(I3
tp1454
aF-0.22089323345553233
aa(lp1455
(I4
tp1456
aF0.5491651220630596
aa(lp1457
(I0
tp1458
aF-0.7317088358214509
aa(lp1459
(I1
tp1460
aF0.14266021327336462
aa(lp1461
(I3
tp1462
aF-0.24083498369804565
aa(lp1463
(I2
tp1464
aF0.009203884727313847
aa(lp1465
(I5
tp1466
aF-0.9556700308527545
aa(lp1467
(I6
tp1468
aF0.009203884727313847
aa(lp1469
(I4
tp1470
aF0.5460971604872883
aa(lp1471
(I0
tp1472
aF-0.7332428166093364
aa(lp1473
(I4
tp1474
aF0.5368932757599744
aa(lp1475
(I1
tp1476
aF0.14419419406125028
aa(lp1477
(I2
tp1478
aF0.006135923151542565
aa(lp1479
(I5
tp1480
aF-0.9556700308527545
aa(lp1481
(I6
tp1482
aF0.009203884727313847
aa(lp1483
(I3
tp1484
aF-0.25924275315267337
aa(lp1485
(I0
tp1486
aF-0.7378447589729934
aa(lp1487
(I2
tp1488
aF0.006135923151542565
aa(lp1489
(I5
tp1490
aF-0.9556700308527545
aa(lp1491
(I1
tp1492
aF0.14572817484913592
aa(lp1493
(I4
tp1494
aF0.5230874486690036
aa(lp1495
(I6
tp1496
aF0.009203884727313847
aa(lp1497
(I3
tp1498
aF-0.2837864457588436
aa(lp1499
(I0
tp1500
aF-0.7409127205487647
aa(lp1501
(I2
tp1502
aF0.0046019423636569235
aa(lp1503
(I1
tp1504
aF0.15339807878856412
aa(lp1505
(I3
tp1506
aF-0.3129320807286708
aa(lp1507
(I6
tp1508
aF0.009203884727313847
aa(lp1509
(I5
tp1510
aF-0.9556700308527545
aa(lp1511
(I4
tp1512
aF0.5062136600022615
aa(lp1513
(I0
tp1514
aF-0.7470486437003072
aa(lp1515
(I1
tp1516
aF0.16873788666742054
aa(lp1517
(I2
tp1518
aF0.0046019423636569235
aa(lp1519
(I3
tp1520
aF-0.34974761963792617
aa(lp1521
(I5
tp1522
aF-0.9541360500648688
aa(lp1523
(I6
tp1524
aF0.009203884727313847
aa(lp1525
(I4
tp1526
aF0.4954757944870621
aa(lp1527
(I0
tp1528
aF-0.7577865092155067
aa(lp1529
(I3
tp1530
aF-0.3865631585471816
aa(lp1531
(I2
tp1532
aF0.0046019423636569235
aa(lp1533
(I6
tp1534
aF0.009203884727313847
aa(lp1535
(I4
tp1536
aF0.49394181369917645
aa(lp1537
(I5
tp1538
aF-0.9541360500648688
aa(lp1539
(I1
tp1540
aF0.1902136176978195
aa(lp1541
(I2
tp1542
aF0.0046019423636569235
aa(lp1543
(I5
tp1544
aF-0.9541360500648688
aa(lp1545
(I0
tp1546
aF-0.7761942786701345
aa(lp1547
(I1
tp1548
aF0.21475731030398976
aa(lp1549
(I6
tp1550
aF0.009203884727313847
aa(lp1551
(I3
tp1552
aF-0.41570879351700873
aa(lp1553
(I4
tp1554
aF0.49394181369917645
aa(lp1555
(I0
tp1556
aF-0.7884661249732196
aa(lp1557
(I4
tp1558
aF0.49394181369917645
aa(lp1559
(I5
tp1560
aF-0.9556700308527545
aa(lp1561
(I2
tp1562
aF0.0046019423636569235
aa(lp1563
(I1
tp1564
aF0.23930100291016002
aa(lp1565
(I6
tp1566
aF0.009203884727313847
aa(lp1567
(I3
tp1568
aF-0.43718452454740775
aa(lp1569
(I3
tp1570
aF-0.45559229400203544
aa(lp1571
(I0
tp1572
aF-0.803805932852076
aa(lp1573
(I5
tp1574
aF-0.9556700308527545
aa(lp1575
(I4
tp1576
aF0.49394181369917645
aa(lp1577
(I2
tp1578
aF0.0046019423636569235
aa(lp1579
(I1
tp1580
aF0.25770877236478773
aa(lp1581
(I6
tp1582
aF0.009203884727313847
aa(lp1583
(I1
tp1584
aF0.26691265709210155
aa(lp1585
(I3
tp1586
aF-0.47093210188089185
aa(lp1587
(I4
tp1588
aF0.48933987133551954
aa(lp1589
(I5
tp1590
aF-0.9572040116406401
aa(lp1591
(I2
tp1592
aF0.0046019423636569235
aa(lp1593
(I6
tp1594
aF0.009203884727313847
aa(lp1595
(I0
tp1596
aF-0.8283496254582462
aa(lp1597
(I0
tp1598
aF-0.8559612796401878
aa(lp1599
(I3
tp1600
aF-0.4908738521234052
aa(lp1601
(I5
tp1602
aF-0.9587379924285258
aa(lp1603
(I1
tp1604
aF0.2699806186678728
aa(lp1605
(I2
tp1606
aF0.0046019423636569235
aa(lp1607
(I6
tp1608
aF0.009203884727313847
aa(lp1609
(I4
tp1610
aF0.48013598660820567
aa(lp1611
(I0
tp1612
aF-0.8774370106705868
aa(lp1613
(I6
tp1614
aF0.009203884727313847
aa(lp1615
(I3
tp1616
aF-0.5200194870932323
aa(lp1617
(I5
tp1618
aF-0.9587379924285258
aa(lp1619
(I1
tp1620
aF0.2745825610315298
aa(lp1621
(I2
tp1622
aF0.0046019423636569235
aa(lp1623
(I4
tp1624
aF0.47860200582032003
aa(lp1625
(I2
tp1626
aF0.0046019423636569235
aa(lp1627
(I0
tp1628
aF-0.8973787609131001
aa(lp1629
(I5
tp1630
aF-0.9602719732164113
aa(lp1631
(I4
tp1632
aF0.47860200582032003
aa(lp1633
(I6
tp1634
aF0.009203884727313847
aa(lp1635
(I3
tp1636
aF-0.5522330836388308
aa(lp1637
(I1
tp1638
aF0.2807184841830723
aa(lp1639
(I0
tp1640
aF-0.9065826456404139
aa(lp1641
(I5
tp1642
aF-0.966407896367954
aa(lp1643
(I1
tp1644
aF0.29299033048615747
aa(lp1645
(I4
tp1646
aF0.47860200582032003
aa(lp1647
(I3
tp1648
aF-0.5859806609723149
aa(lp1649
(I2
tp1650
aF0.0046019423636569235
aa(lp1651
(I6
tp1652
aF0.007669903939428206
aa(lp1653
(I2
tp1654
aF0.0046019423636569235
aa(lp1655
(I5
tp1656
aF-0.9725438195194965
aa(lp1657
(I6
tp1658
aF0.009203884727313847
aa(lp1659
(I0
tp1660
aF-0.9173205111556134
aa(lp1661
(I3
tp1662
aF-0.6151262959421421
aa(lp1663
(I1
tp1664
aF0.303728196001357
aa(lp1665
(I4
tp1666
aF0.47860200582032003
aa(lp1667
(I0
tp1668
aF-0.9326603190344698
aa(lp1669
(I5
tp1670
aF-0.9802137234589247
aa(lp1671
(I3
tp1672
aF-0.6366020269725411
aa(lp1673
(I6
tp1674
aF0.007669903939428206
aa(lp1675
(I1
tp1676
aF0.3129320807286708
aa(lp1677
(I4
tp1678
aF0.47860200582032003
aa(lp1679
(I2
tp1680
aF0.0046019423636569235
aa(lp1681
(I1
tp1682
aF0.320601984668099
aa(lp1683
(I5
tp1684
aF-0.9924855697620099
aa(lp1685
(I0
tp1686
aF-0.944932165337555
aa(lp1687
(I6
tp1688
aF0.009203884727313847
aa(lp1689
(I2
tp1690
aF0.0046019423636569235
aa(lp1691
(I4
tp1692
aF0.47860200582032003
aa(lp1693
(I3
tp1694
aF-0.6504078540635119
aa(lp1695
(I1
tp1696
aF0.32520392703175593
aa(lp1697
(I6
tp1698
aF0.009203884727313847
aa(lp1699
(I3
tp1700
aF-0.662679700366597
aa(lp1701
(I5
tp1702
aF-1.0139613007924089
aa(lp1703
(I0
tp1704
aF-0.9602719732164113
aa(lp1705
(I4
tp1706
aF0.47860200582032003
aa(lp1707
(I2
tp1708
aF0.0046019423636569235
aa(lp1709
(I3
tp1710
aF-0.6749515466696822
aa(lp1711
(I4
tp1712
aF0.47860200582032003
aa(lp1713
(I6
tp1714
aF0.009203884727313847
aa(lp1715
(I0
tp1716
aF-0.9756117810952678
aa(lp1717
(I5
tp1718
aF-1.0369710126106935
aa(lp1719
(I2
tp1720
aF0.0046019423636569235
aa(lp1721
(I1
tp1722
aF0.32980586939541284
aa(lp1723
(I3
tp1724
aF-0.6826214506091103
aa(lp1725
(I2
tp1726
aF0.0046019423636569235
aa(lp1727
(I6
tp1728
aF0.009203884727313847
aa(lp1729
(I4
tp1730
aF0.47860200582032003
aa(lp1731
(I0
tp1732
aF-0.9955535313377811
aa(lp1733
(I5
tp1734
aF-1.0584467436410925
aa(lp1735
(I1
tp1736
aF0.3390097541227267
aa(lp1737
(I0
tp1738
aF-1.0200972239439514
aa.